; Function Attrs: mustprogress nofree nounwind willreturn memory(read, inaccessiblemem: none) uwtable
define noundef zeroext i1 @_ZNK32pxrInternal_v0_24__pxrReserved__18TraceStaticKeyDataeqERKS0_(ptr nocapture noundef nonnull readonly align 8 dereferenceable(24) %0, ptr nocapture noundef nonnull readonly align 8 dereferenceable(24) %1) local_unnamed_addr #0 align 2 {
  %3 = load ptr, ptr %0, align 8
  %4 = load ptr, ptr %1, align 8
  %5 = icmp eq ptr %3, %4
  br i1 %5, label %_ZN32pxrInternal_v0_24__pxrReserved__L9_StrEqualEPKcS1_.exit.thread, label %6

6:                                                ; preds = %2
  %7 = icmp ne ptr %3, null
  %8 = icmp ne ptr %4, null
  %or.cond.i = and i1 %7, %8
  br i1 %or.cond.i, label %_ZN32pxrInternal_v0_24__pxrReserved__L9_StrEqualEPKcS1_.exit, label %_ZN32pxrInternal_v0_24__pxrReserved__L9_StrEqualEPKcS1_.exit9

_ZN32pxrInternal_v0_24__pxrReserved__L9_StrEqualEPKcS1_.exit: ; preds = %6
  %9 = tail call i32 @strcmp(ptr noundef nonnull readonly dereferenceable(1) %3, ptr noundef nonnull readonly dereferenceable(1) %4) #9
  %10 = icmp eq i32 %9, 0
  br i1 %10, label %_ZN32pxrInternal_v0_24__pxrReserved__L9_StrEqualEPKcS1_.exit.thread, label %_ZN32pxrInternal_v0_24__pxrReserved__L9_StrEqualEPKcS1_.exit9

_ZN32pxrInternal_v0_24__pxrReserved__L9_StrEqualEPKcS1_.exit.thread: ; preds = %2, %_ZN32pxrInternal_v0_24__pxrReserved__L9_StrEqualEPKcS1_.exit
  %11 = getelementptr inbounds nuw i8, ptr %0, i64 8
  %12 = load ptr, ptr %11, align 8
  %13 = getelementptr inbounds nuw i8, ptr %1, i64 8
  %14 = load ptr, ptr %13, align 8
  %15 = icmp eq ptr %12, %14
  br i1 %15, label %_ZN32pxrInternal_v0_24__pxrReserved__L9_StrEqualEPKcS1_.exit6.thread, label %16

16:                                               ; preds = %_ZN32pxrInternal_v0_24__pxrReserved__L9_StrEqualEPKcS1_.exit.thread
  %17 = icmp ne ptr %12, null
  %18 = icmp ne ptr %14, null
  %or.cond.i4 = and i1 %17, %18
  br i1 %or.cond.i4, label %_ZN32pxrInternal_v0_24__pxrReserved__L9_StrEqualEPKcS1_.exit6, label %_ZN32pxrInternal_v0_24__pxrReserved__L9_StrEqualEPKcS1_.exit9

_ZN32pxrInternal_v0_24__pxrReserved__L9_StrEqualEPKcS1_.exit6: ; preds = %16
  %19 = tail call i32 @strcmp(ptr noundef nonnull readonly dereferenceable(1) %12, ptr noundef nonnull readonly dereferenceable(1) %14) #9
  %20 = icmp eq i32 %19, 0
  br i1 %20, label %_ZN32pxrInternal_v0_24__pxrReserved__L9_StrEqualEPKcS1_.exit6.thread, label %_ZN32pxrInternal_v0_24__pxrReserved__L9_StrEqualEPKcS1_.exit9

_ZN32pxrInternal_v0_24__pxrReserved__L9_StrEqualEPKcS1_.exit6.thread: ; preds = %_ZN32pxrInternal_v0_24__pxrReserved__L9_StrEqualEPKcS1_.exit.thread, %_ZN32pxrInternal_v0_24__pxrReserved__L9_StrEqualEPKcS1_.exit6
  %21 = getelementptr inbounds nuw i8, ptr %0, i64 16
  %22 = load ptr, ptr %21, align 8
  %23 = getelementptr inbounds nuw i8, ptr %1, i64 16
  %24 = load ptr, ptr %23, align 8
  %25 = icmp eq ptr %22, %24
  br i1 %25, label %_ZN32pxrInternal_v0_24__pxrReserved__L9_StrEqualEPKcS1_.exit9, label %26

26:                                               ; preds = %_ZN32pxrInternal_v0_24__pxrReserved__L9_StrEqualEPKcS1_.exit6.thread
  %27 = icmp ne ptr %22, null
  %28 = icmp ne ptr %24, null
  %or.cond.i7 = and i1 %27, %28
  br i1 %or.cond.i7, label %29, label %_ZN32pxrInternal_v0_24__pxrReserved__L9_StrEqualEPKcS1_.exit9

29:                                               ; preds = %26
  %30 = tail call i32 @strcmp(ptr noundef nonnull readonly dereferenceable(1) %22, ptr noundef nonnull readonly dereferenceable(1) %24) #9
  %31 = icmp eq i32 %30, 0
  br label %_ZN32pxrInternal_v0_24__pxrReserved__L9_StrEqualEPKcS1_.exit9

_ZN32pxrInternal_v0_24__pxrReserved__L9_StrEqualEPKcS1_.exit9: ; preds = %16, %6, %29, %26, %_ZN32pxrInternal_v0_24__pxrReserved__L9_StrEqualEPKcS1_.exit6.thread, %_ZN32pxrInternal_v0_24__pxrReserved__L9_StrEqualEPKcS1_.exit6, %_ZN32pxrInternal_v0_24__pxrReserved__L9_StrEqualEPKcS1_.exit
  %32 = phi i1 [ false, %_ZN32pxrInternal_v0_24__pxrReserved__L9_StrEqualEPKcS1_.exit6 ], [ false, %_ZN32pxrInternal_v0_24__pxrReserved__L9_StrEqualEPKcS1_.exit ], [ %31, %29 ], [ true, %_ZN32pxrInternal_v0_24__pxrReserved__L9_StrEqualEPKcS1_.exit6.thread ], [ false, %26 ], [ false, %6 ], [ false, %16 ]
  ret i1 %32
}